(lp0
ccopy_reg
_reconstructor
p1
(c__main__
SpecialFloor
p2
c__builtin__
object
p3
Ntp4
Rp5
(dp6
S'_nextFloor'
p7
NsS'_boss'
p8
I1
sS'_enemyCount'
p9
I1
sS'_merchant'
p10
I0
sS'_name'
p11
S'Floor 1'
p12
sbaI0
a(lp13
a(lp14
aI0
a(lp15
a.