(lp0
ccopy_reg
_reconstructor
p1
(c__main__
FightFloor
p2
c__builtin__
object
p3
Ntp4
Rp5
(dp6
S'_flindCount'
p7
I0
sS'_enemyCount'
p8
I5
sS'_name'
p9
S'Floor 6'
p10
sS'_nextFloor'
p11
g1
(g2
g3
Ntp12
Rp13
(dp14
g7
I0
sg8
I5
sg9
S'Floor 7'
p15
sg11
g1
(g2
g3
Ntp16
Rp17
(dp18
g7
I2
sg8
I5
sg9
S'Floor 8'
p19
sg11
g1
(c__main__
MiniFloor
p20
g3
Ntp21
Rp22
(dp23
g11
g1
(g2
g3
Ntp24
Rp25
(dp26
g7
I3
sg8
I5
sg9
S'Floor 10'
p27
sg11
g1
(g2
g3
Ntp28
Rp29
(dp30
g7
I5
sg8
I5
sg9
S'Floor 11'
p31
sg11
g1
(g2
g3
Ntp32
Rp33
(dp34
g7
I7
sg8
I7
sg9
S'Floor 12'
p35
sg11
g1
(c__main__
SpecialFloor
p36
g3
Ntp37
Rp38
(dp39
g11
NsS'_boss'
p40
I1
sg8
I1
sS'_merchant'
p41
I0
sg9
S'Final Boss Floor'
p42
sbsS'_hillCount'
p43
I0
sS'_gnollCount'
p44
I0
sbsg43
I0
sg44
I0
sbsg43
I0
sg44
I2
sbsS'mini'
p45
I1
sS'partyMem'
p46
I2
sg8
I1
sg9
S'Mini Boss Floor 2'
p47
sbsg43
I0
sg44
I3
sbsg43
I0
sg44
I5
sbsg43
I2
sg44
I3
sbaI0
a(lp48
g1
(cCombat
Hero
p49
g3
Ntp50
Rp51
(dp52
S'_learnableMoves'
p53
(lp54
(iStatsAndItems
Move
p55
(dp56
S'_statusEffects'
p57
(lp58
(iStatsAndItems
StatusEffect
p59
(dp60
S'_amounts'
p61
(lp62
I-10
asS'_stats'
p63
(lp64
S'health'
p65
asg9
S'Charge'
p66
sS'_verb'
p67
S'charged'
p68
sS'_turns'
p69
<<<<<<< HEAD
I0
sbasS'_uses'
p70
I3
sS'_target'
p71
S'Single'
p72
sS'_left'
p73
I3
sg9
g66
sba(iStatsAndItems
Move
p74
(dp75
g57
(lp76
(iStatsAndItems
StatusEffect
p77
(dp78
g61
(lp79
S'F-75'
p80
aI-3
asg63
(lp81
g65
aS'defense'
p82
asg9
S'Plague'
p83
sg67
S'plagued'
p84
sg69
I3
sbasg70
I2
sg71
S'All'
p85
sg73
I2
sg9
g83
sbasS'_leveling'
p86
(lp87
(lp88
=======
(lp70
(iStatsAndItems
Move
p71
(dp72
S'_statusEffects'
p73
(lp74
(iStatsAndItems
StatusEffect
p75
(dp76
S'_amounts'
p77
(lp78
S'F-150'
p79
asS'_stats'
p80
(lp81
S'health'
p82
asg9
S'Charge'
p83
sS'_verb'
p84
S'charged'
p85
sS'_turns'
p86
I0
sbasS'_uses'
p87
I3
sS'_target'
p88
S'Single'
p89
sS'_left'
p90
I3
sg9
g83
sbasS'_leveling'
p91
(lp92
(lp93
>>>>>>> master
I15
aI1
aI1
aI1
aI1
aI2
aI2
aI2
aI3
aI4
aI5
<<<<<<< HEAD
aa(lp89
=======
aa(lp94
>>>>>>> master
I5
aI2
aI1
aI1
aI2
aI1
aI1
aI1
aI1
aI2
aI5
<<<<<<< HEAD
aa(lp90
I5
=======
aa(lp95
I1
>>>>>>> master
aI2
aI1
aI1
aI2
aI1
aI1
aI1
aI1
aI2
aI5
<<<<<<< HEAD
aa(lp91
=======
aa(lp96
>>>>>>> master
I5
aI2
aI1
aI1
aI2
aI1
aI1
aI1
aI1
aI2
aI5
aasS'_armor'
<<<<<<< HEAD
p92
g1
(cStatsAndItems
Armor
p93
g3
Ntp94
Rp95
(dp96
S'_defense'
p97
I2
sS'_flavor'
p98
S'Name: Leather Armor  Defense: 2  Durability: 100  Cost: 25'
p99
sg9
S'Leather Armor'
p100
sS'_durability'
p101
I100
sS'_grade'
p102
I0
sS'_cost'
p103
I25
sbsS'_weapon'
p104
g1
(cStatsAndItems
Weapon
p105
g3
Ntp106
Rp107
(dp108
S'_range'
p109
I1
sg98
S'Name: Dagger  Attack: 1  Range: 1  Cost: 10'
p110
sS'_accuracy'
p111
I80
sg9
S'Dagger'
p112
sg102
I0
sS'verb'
p113
S'stabs'
p114
sS'_critRate'
p115
I10
sg103
I10
sS'_consistency'
p116
I1
sS'_fight'
p117
I1
sbsS'_inventory'
p118
(lp119
sS'_level'
p120
I1
sS'_health'
p121
I15
sS'_maxHealth'
p122
I15
sS'_maxFight'
p123
I5
sg9
S'Player'
p124
sg97
I5
sS'_caste'
p125
S'Hero'
p126
sS'_maxDefense'
p127
I5
sS'_maxAgility'
p128
I5
sS'_agility'
p129
I5
sS'_moves'
p130
(lp131
sS'_gender'
p132
(iCombat
Gender
p133
(dp134
S'_posAdj'
p135
S'their'
p136
sS'_posPro'
p137
S'theirs'
p138
sS'_obj'
p139
S'them'
p140
sg9
S'???'
p141
sS'_subj'
p142
S'they'
p143
sS'_refl'
p144
S'themself'
p145
sbsg117
I5
sg57
(lp146
sbag1
(g49
g3
Ntp147
Rp148
(dp149
g53
(lp150
sg86
(lp151
(lp152
I20
aI0
aI0
aI0
aI5
aI0
aI0
aI0
aI5
aI0
aI10
aa(lp153
I0
aI0
aI0
aI0
aI0
aI0
aI0
aI0
aI0
aI0
aI0
aa(lp154
I2
aI1
aI0
aI1
aI1
aI0
aI1
aI1
aI0
aI1
aI5
aa(lp155
I1
aI1
aI1
aI0
aI1
aI1
aI0
aI1
aI1
aI0
aI5
aasg92
g1
(g93
g3
Ntp156
Rp157
(dp158
g97
I2
sg98
S'Name: Holy Robes  Defense: 2  Durability: 50  Cost: 10'
p159
sg9
S'Holy Robes'
p160
sg101
I50
sg102
I1
sg103
I10
sbsg104
g1
(g105
g3
Ntp161
Rp162
(dp163
g109
I0
sg98
S'Name: Cross  Attack: 0  Range: 0  Cost: 20'
p164
sg111
I0
sg9
S'Cross'
p165
sg102
I1
sg113
S'used'
p166
sg115
I0
sg103
I20
sg116
I0
sg117
I0
sbsg118
(lp167
sg120
I1
sg121
I20
sg122
I20
sg123
I0
sg9
S'Frethenei'
p168
sg97
I2
sg125
S'Healer'
p169
sg127
I2
sg128
I1
sg129
I1
sg130
(lp170
sg132
(iCombat
Gender
p171
(dp172
g135
g136
sg137
g138
sg139
g140
sg9
g141
sg142
g143
sg144
g145
sbsg117
I0
sg57
(lp173
sbaa(lp174
g1
(g105
g3
Ntp175
Rp176
(dp177
g109
I3
sg98
S'GLOCK.'
p178
sg111
I100
sg9
S'Glock 18'
p179
sg102
I100
sg113
S'shoots'
p180
sg115
I100
sg103
I100
sg116
I1
sg117
I100
sbag1
(cStatsAndItems
Consumable
p181
g3
Ntp182
Rp183
(dp184
g102
I2
sS'_statusEffect'
p185
(iStatsAndItems
StatusEffect
p186
(dp187
g61
(lp188
I6
asg63
(lp189
S'fight'
p190
asg9
S'Big Fight'
p191
sg67
S'drank'
p192
sg69
I3
sbsg98
S'Name: Big Fight Potion  Cost: 150'
p193
sg103
I150
sg9
S'Big Fight Potion'
p194
sbag1
(g93
g3
Ntp195
Rp196
(dp197
g97
I4
sg98
S'Name: Chainmail Armor  Defense: 4  Durability: 150  Cost: 75'
p198
sg9
S'Chainmail Armor'
p199
sg101
I150
sg102
I1
sg103
I75
sbaaI0
a(lp200
=======
p97
g1
(cStatsAndItems
Armor
p98
g3
Ntp99
Rp100
(dp101
S'_defense'
p102
I2
sS'_flavor'
p103
S'Name: Leather Armor  Defense: 2  Durability: 100  Cost: 25'
p104
sg9
S'Leather Armor'
p105
sS'_durability'
p106
I100
sS'_grade'
p107
I0
sS'_cost'
p108
I25
sbsS'_weapon'
p109
g1
(cStatsAndItems
Weapon
p110
g3
Ntp111
Rp112
(dp113
S'_range'
p114
I3
sg103
S'GLOCK.'
p115
sS'_accuracy'
p116
I100
sg9
S'Glock 18'
p117
sg107
I100
sS'verb'
p118
S'shoots'
p119
sS'_critRate'
p120
I100
sg108
I100
sS'_consistency'
p121
I1
sS'_fight'
p122
I100
sbsS'_inventory'
p123
(lp124
sS'_level'
p125
I1
sS'_health'
p126
I15
sS'_maxHealth'
p127
I15
sS'_maxFight'
p128
I5
sg9
S'Player'
p129
sg102
I1
sS'_caste'
p130
S'Hero'
p131
sS'_maxDefense'
p132
I1
sS'_maxAgility'
p133
I5
sS'_agility'
p134
I5
sS'_moves'
p135
(lp136
sS'_gender'
p137
(iCombat
Gender
p138
(dp139
S'_posAdj'
p140
S'their'
p141
sS'_posPro'
p142
S'theirs'
p143
sS'_obj'
p144
S'them'
p145
sg9
S'???'
p146
sS'_subj'
p147
S'they'
p148
sS'_refl'
p149
S'themself'
p150
sbsg122
I5
sg73
(lp151
sbag1
(g65
g3
Ntp152
Rp153
(dp154
g69
(lp155
sg91
(lp156
(lp157
I10
aI1
aI1
aI1
aI1
aI1
aI1
aI1
aI1
aI1
aI2
aa(lp158
I3
aI0
aI0
aI0
aI0
aI3
aI0
aI0
aI0
aI3
aI4
aa(lp159
I2
aI0
aI0
aI2
aI0
aI0
aI2
aI0
aI0
aI2
aI2
aa(lp160
I3
aI1
aI1
aI1
aI1
aI1
aI1
aI1
aI1
aI2
aI3
aasg97
g100
sg109
g1
(g110
g3
Ntp161
Rp162
(dp163
g114
I1
sg103
S'Name: Dagger  Attack: 1  Range: 1  Cost: 10'
p164
sg116
I80
sg9
S'Dagger'
p165
sg107
I0
sg118
S'stabs'
p166
sg120
I10
sg108
I10
sg121
I1
sg122
I1
sbsg123
(lp167
sg125
I1
sg126
I10
sg127
I10
sg128
I3
sg9
S'Knithenpf'
p168
sg102
I2
sg130
S'Rogue'
p169
sg132
I2
sg133
I3
sg134
I3
sg135
(lp170
sg137
(iCombat
Gender
p171
(dp172
g140
g141
sg142
g143
sg144
g145
sg9
g146
sg147
g148
sg149
g150
sbsg122
I3
sg73
(lp173
sbaa(lp174
g1
(g110
g3
Ntp175
Rp176
(dp177
g114
I1
sg103
g164
sg116
I80
sg9
g165
sg107
I0
sg118
g166
sg120
I10
sg108
I10
sg121
I1
sg122
I1
sbaaI0
a(lp178
>>>>>>> master
a.